; Function Attrs: mustprogress nounwind uwtable
define void @_ZN5faiss30pairwise_indexed_inner_productEmmPKfPKlS1_S3_Pf(i64 noundef %0, i64 noundef %1, ptr noundef %2, ptr noundef %3, ptr noundef %4, ptr noundef %5, ptr noundef %6) local_unnamed_addr #0 {
  %8 = alloca i64, align 8
  %9 = alloca i64, align 8
  %10 = alloca ptr, align 8
  %11 = alloca ptr, align 8
  %12 = alloca ptr, align 8
  %13 = alloca ptr, align 8
  %14 = alloca ptr, align 8
  %15 = alloca i32, align 4
  %16 = tail call i32 @__kmpc_global_thread_num(ptr nonnull @2)
  store i64 %0, ptr %8, align 8
  store i64 %1, ptr %9, align 8
  store ptr %2, ptr %10, align 8
  store ptr %3, ptr %11, align 8
  store ptr %4, ptr %12, align 8
  store ptr %5, ptr %13, align 8
  store ptr %6, ptr %14, align 8
  %17 = icmp ugt i64 %1, 1
  br i1 %17, label %18, label %19

18:                                               ; preds = %7
  call void (ptr, i32, ptr, ...) @__kmpc_fork_call(ptr nonnull @2, i32 7, ptr nonnull @_ZN5faiss30pairwise_indexed_inner_productEmmPKfPKlS1_S3_Pf.omp_outlined, ptr nonnull %9, ptr nonnull %11, ptr nonnull %13, ptr nonnull %14, ptr nonnull %10, ptr nonnull %8, ptr nonnull %12)
  br label %20

19:                                               ; preds = %7
  tail call void @__kmpc_serialized_parallel(ptr nonnull @2, i32 %16)
  store i32 %16, ptr %15, align 4
  call void @_ZN5faiss30pairwise_indexed_inner_productEmmPKfPKlS1_S3_Pf.omp_outlined(ptr nonnull %15, ptr nonnull poison, ptr %9, ptr %11, ptr %13, ptr %14, ptr %10, ptr %8, ptr %12) #2
  tail call void @__kmpc_end_serialized_parallel(ptr nonnull @2, i32 %16)
  br label %20

20:                                               ; preds = %19, %18
  ret void
}